target datalayout = "e-m:e-p270:32:32-p271:32:32-p272:64:64-i64:64-i128:128-f80:128-n8:16:32:64-S128"
target triple = "x86_64-pc-linux-gnu"

%"class.Ipopt::DenseVector" = type { %"class.Ipopt::Vector.base", ptr, ptr, ptr, i8, i8, double }
%"class.Ipopt::Vector.base" = type <{ %"class.Ipopt::TaggedObject", %"class.Ipopt::SmartPtr", %"class.Ipopt::CachedResults", i32, [4 x i8], double, i32, [4 x i8], double, i32, [4 x i8], double, i32, [4 x i8], double, i32, [4 x i8], double, i32, [4 x i8], double, i32, [4 x i8], double, i32, i8 }>
%"class.Ipopt::TaggedObject" = type { %"class.Ipopt::ReferencedObject.base", %"class.Ipopt::Subject", i32, i32 }
%"class.Ipopt::ReferencedObject.base" = type <{ ptr, i32 }>
%"class.Ipopt::Subject" = type { ptr, %"class.std::vector" }
%"class.std::vector" = type { %"struct.std::_Vector_base" }
%"struct.std::_Vector_base" = type { %"struct.std::_Vector_base<Ipopt::Observer *, std::allocator<Ipopt::Observer *>>::_Vector_impl" }
%"struct.std::_Vector_base<Ipopt::Observer *, std::allocator<Ipopt::Observer *>>::_Vector_impl" = type { %"struct.std::_Vector_base<Ipopt::Observer *, std::allocator<Ipopt::Observer *>>::_Vector_impl_data" }
%"struct.std::_Vector_base<Ipopt::Observer *, std::allocator<Ipopt::Observer *>>::_Vector_impl_data" = type { ptr, ptr, ptr }
%"class.Ipopt::SmartPtr" = type { ptr }
%"class.Ipopt::CachedResults" = type { ptr, i32, ptr }
%"class.Ipopt::Vector" = type <{ %"class.Ipopt::TaggedObject", %"class.Ipopt::SmartPtr", %"class.Ipopt::CachedResults", i32, [4 x i8], double, i32, [4 x i8], double, i32, [4 x i8], double, i32, [4 x i8], double, i32, [4 x i8], double, i32, [4 x i8], double, i32, [4 x i8], double, i32, i8, [3 x i8] }>
%"class.Ipopt::VectorSpace" = type { %"class.Ipopt::ReferencedObject.base", i32 }

; Function Attrs: mustprogress nounwind uwtable
define linkonce_odr noundef nonnull align 8 dereferenceable(8) ptr @_ZSt3minIdERKT_S2_S2_(ptr noundef nonnull align 8 dereferenceable(8) %0, ptr noundef nonnull align 8 dereferenceable(8) %1) #1 comdat {
  %3 = alloca ptr, align 8
  %4 = alloca ptr, align 8
  %5 = alloca ptr, align 8
  store ptr %0, ptr %4, align 8
  store ptr %1, ptr %5, align 8
  %6 = load ptr, ptr %5, align 8
  %7 = load double, ptr %6, align 8
  %8 = load ptr, ptr %4, align 8
  %9 = load double, ptr %8, align 8
  %10 = fcmp olt double %7, %9
  br i1 %10, label %11, label %13

11:                                               ; preds = %2
  %12 = load ptr, ptr %5, align 8
  store ptr %12, ptr %3, align 8
  br label %15

13:                                               ; preds = %2
  %14 = load ptr, ptr %4, align 8
  store ptr %14, ptr %3, align 8
  br label %15

15:                                               ; preds = %13, %11
  %16 = load ptr, ptr %3, align 8
  ret ptr %16
}

; Function Attrs: mustprogress nounwind uwtable
define linkonce_odr noundef i32 @_ZNK5Ipopt11VectorSpace3DimEv(ptr noundef nonnull align 8 dereferenceable(16) %0) #1 comdat align 2 {
  %2 = alloca ptr, align 8
  store ptr %0, ptr %2, align 8
  %3 = load ptr, ptr %2, align 8
  %4 = getelementptr inbounds %"class.Ipopt::VectorSpace", ptr %3, i32 0, i32 1
  %5 = load i32, ptr %4, align 4
  ret i32 %5
}

; Function Attrs: mustprogress nounwind uwtable
define linkonce_odr noundef ptr @_ZNK5Ipopt8SmartPtrIKNS_11VectorSpaceEEptEv(ptr noundef nonnull align 8 dereferenceable(8) %0) #1 comdat align 2 {
  %2 = alloca ptr, align 8
  store ptr %0, ptr %2, align 8
  %3 = load ptr, ptr %2, align 8
  %4 = getelementptr inbounds %"class.Ipopt::SmartPtr", ptr %3, i32 0, i32 0
  %5 = load ptr, ptr %4, align 8
  ret ptr %5
}

; Function Attrs: mustprogress uwtable
define linkonce_odr noundef double @_ZN5Ipopt3MinIdEET_S1_S1_(double noundef %0, double noundef %1) #0 comdat {
  %3 = alloca double, align 8
  %4 = alloca double, align 8
  store double %0, ptr %3, align 8
  store double %1, ptr %4, align 8
  %5 = call noundef nonnull align 8 dereferenceable(8) ptr @_ZSt3minIdERKT_S2_S2_(ptr noundef nonnull align 8 dereferenceable(8) %3, ptr noundef nonnull align 8 dereferenceable(8) %4)
  %6 = load double, ptr %5, align 8
  ret double %6
}

; Function Attrs: mustprogress uwtable
define linkonce_odr noundef i32 @_ZNK5Ipopt6Vector3DimEv(ptr noundef nonnull align 8 dereferenceable(205) %0) #0 comdat align 2 {
  %2 = alloca ptr, align 8
  store ptr %0, ptr %2, align 8
  %3 = load ptr, ptr %2, align 8
  %4 = getelementptr inbounds %"class.Ipopt::Vector", ptr %3, i32 0, i32 1
  %5 = call noundef ptr @_ZNK5Ipopt8SmartPtrIKNS_11VectorSpaceEEptEv(ptr noundef nonnull align 8 dereferenceable(8) %4)
  %6 = call noundef i32 @_ZNK5Ipopt11VectorSpace3DimEv(ptr noundef nonnull align 8 dereferenceable(16) %5)
  ret i32 %6
}

; Function Attrs: mustprogress uwtable
define noundef double @_ZNK5Ipopt11DenseVector15FracToBoundImplERKNS_6VectorEd(ptr noundef nonnull align 8 dereferenceable(248) %0, ptr noundef nonnull align 8 dereferenceable(205) %1, double noundef %2) unnamed_addr #0 align 2 {
  %4 = alloca double, align 8
  %5 = alloca ptr, align 8
  %6 = alloca ptr, align 8
  %7 = alloca double, align 8
  %8 = alloca ptr, align 8
  %9 = alloca double, align 8
  %10 = alloca ptr, align 8
  %11 = alloca ptr, align 8
  %12 = alloca i32, align 4
  %13 = alloca i32, align 4
  %14 = alloca i32, align 4
  store ptr %0, ptr %5, align 8
  store ptr %1, ptr %6, align 8
  store double %2, ptr %7, align 8
  %15 = load ptr, ptr %5, align 8
  %16 = load ptr, ptr %6, align 8
  store ptr %16, ptr %8, align 8
  %17 = call noundef i32 @_ZNK5Ipopt6Vector3DimEv(ptr noundef nonnull align 8 dereferenceable(205) %15)
  %18 = icmp eq i32 %17, 0
  br i1 %18, label %19, label %20

19:                                               ; preds = %3
  store double 1.000000e+00, ptr %4, align 8
  br label %156

20:                                               ; preds = %3
  store double 1.000000e+00, ptr %9, align 8
  %21 = getelementptr inbounds %"class.Ipopt::DenseVector", ptr %15, i32 0, i32 2
  %22 = load ptr, ptr %21, align 8
  store ptr %22, ptr %10, align 8
  %23 = load ptr, ptr %8, align 8
  %24 = getelementptr inbounds %"class.Ipopt::DenseVector", ptr %23, i32 0, i32 2
  %25 = load ptr, ptr %24, align 8
  store ptr %25, ptr %11, align 8
  %26 = getelementptr inbounds %"class.Ipopt::DenseVector", ptr %15, i32 0, i32 5
  %27 = load i8, ptr %26, align 1
  %28 = trunc i8 %27 to i1
  br i1 %28, label %29, label %84

29:                                               ; preds = %20
  %30 = load ptr, ptr %8, align 8
  %31 = getelementptr inbounds %"class.Ipopt::DenseVector", ptr %30, i32 0, i32 5
  %32 = load i8, ptr %31, align 1
  %33 = trunc i8 %32 to i1
  br i1 %33, label %34, label %52

34:                                               ; preds = %29
  %35 = load ptr, ptr %8, align 8
  %36 = getelementptr inbounds %"class.Ipopt::DenseVector", ptr %35, i32 0, i32 6
  %37 = load double, ptr %36, align 8
  %38 = fcmp olt double %37, 0.000000e+00
  br i1 %38, label %39, label %51

39:                                               ; preds = %34
  %40 = load double, ptr %9, align 8
  %41 = load double, ptr %7, align 8
  %42 = fneg double %41
  %43 = load ptr, ptr %8, align 8
  %44 = getelementptr inbounds %"class.Ipopt::DenseVector", ptr %43, i32 0, i32 6
  %45 = load double, ptr %44, align 8
  %46 = fdiv double %42, %45
  %47 = getelementptr inbounds %"class.Ipopt::DenseVector", ptr %15, i32 0, i32 6
  %48 = load double, ptr %47, align 8
  %49 = fmul double %46, %48
  %50 = call noundef double @_ZN5Ipopt3MinIdEET_S1_S1_(double noundef %40, double noundef %49)
  store double %50, ptr %9, align 8
  br label %51

51:                                               ; preds = %39, %34
  br label %83

52:                                               ; preds = %29
  store i32 0, ptr %12, align 4
  br label %53

53:                                               ; preds = %79, %52
  %54 = load i32, ptr %12, align 4
  %55 = call noundef i32 @_ZNK5Ipopt6Vector3DimEv(ptr noundef nonnull align 8 dereferenceable(205) %15)
  %56 = icmp slt i32 %54, %55
  br i1 %56, label %57, label %82

57:                                               ; preds = %53
  %58 = load ptr, ptr %11, align 8
  %59 = load i32, ptr %12, align 4
  %60 = sext i32 %59 to i64
  %61 = getelementptr inbounds double, ptr %58, i64 %60
  %62 = load double, ptr %61, align 8
  %63 = fcmp olt double %62, 0.000000e+00
  br i1 %63, label %64, label %78

64:                                               ; preds = %57
  %65 = load double, ptr %9, align 8
  %66 = load double, ptr %7, align 8
  %67 = fneg double %66
  %68 = load ptr, ptr %11, align 8
  %69 = load i32, ptr %12, align 4
  %70 = sext i32 %69 to i64
  %71 = getelementptr inbounds double, ptr %68, i64 %70
  %72 = load double, ptr %71, align 8
  %73 = fdiv double %67, %72
  %74 = getelementptr inbounds %"class.Ipopt::DenseVector", ptr %15, i32 0, i32 6
  %75 = load double, ptr %74, align 8
  %76 = fmul double %73, %75
  %77 = call noundef double @_ZN5Ipopt3MinIdEET_S1_S1_(double noundef %65, double noundef %76)
  store double %77, ptr %9, align 8
  br label %78

78:                                               ; preds = %64, %57
  br label %79

79:                                               ; preds = %78
  %80 = load i32, ptr %12, align 4
  %81 = add nsw i32 %80, 1
  store i32 %81, ptr %12, align 4
  br label %53, !llvm.loop !83

82:                                               ; preds = %53
  br label %83

83:                                               ; preds = %82, %51
  br label %154

84:                                               ; preds = %20
  %85 = load ptr, ptr %8, align 8
  %86 = getelementptr inbounds %"class.Ipopt::DenseVector", ptr %85, i32 0, i32 5
  %87 = load i8, ptr %86, align 1
  %88 = trunc i8 %87 to i1
  br i1 %88, label %89, label %119

89:                                               ; preds = %84
  %90 = load ptr, ptr %8, align 8
  %91 = getelementptr inbounds %"class.Ipopt::DenseVector", ptr %90, i32 0, i32 6
  %92 = load double, ptr %91, align 8
  %93 = fcmp olt double %92, 0.000000e+00
  br i1 %93, label %94, label %118

94:                                               ; preds = %89
  store i32 0, ptr %13, align 4
  br label %95

95:                                               ; preds = %114, %94
  %96 = load i32, ptr %13, align 4
  %97 = call noundef i32 @_ZNK5Ipopt6Vector3DimEv(ptr noundef nonnull align 8 dereferenceable(205) %15)
  %98 = icmp slt i32 %96, %97
  br i1 %98, label %99, label %117

99:                                               ; preds = %95
  %100 = load double, ptr %9, align 8
  %101 = load double, ptr %7, align 8
  %102 = fneg double %101
  %103 = load ptr, ptr %8, align 8
  %104 = getelementptr inbounds %"class.Ipopt::DenseVector", ptr %103, i32 0, i32 6
  %105 = load double, ptr %104, align 8
  %106 = fdiv double %102, %105
  %107 = load ptr, ptr %10, align 8
  %108 = load i32, ptr %13, align 4
  %109 = sext i32 %108 to i64
  %110 = getelementptr inbounds double, ptr %107, i64 %109
  %111 = load double, ptr %110, align 8
  %112 = fmul double %106, %111
  %113 = call noundef double @_ZN5Ipopt3MinIdEET_S1_S1_(double noundef %100, double noundef %112)
  store double %113, ptr %9, align 8
  br label %114

114:                                              ; preds = %99
  %115 = load i32, ptr %13, align 4
  %116 = add nsw i32 %115, 1
  store i32 %116, ptr %13, align 4
  br label %95, !llvm.loop !84

117:                                              ; preds = %95
  br label %118

118:                                              ; preds = %117, %89
  br label %153

119:                                              ; preds = %84
  store i32 0, ptr %14, align 4
  br label %120

120:                                              ; preds = %149, %119
  %121 = load i32, ptr %14, align 4
  %122 = call noundef i32 @_ZNK5Ipopt6Vector3DimEv(ptr noundef nonnull align 8 dereferenceable(205) %15)
  %123 = icmp slt i32 %121, %122
  br i1 %123, label %124, label %152

124:                                              ; preds = %120
  %125 = load ptr, ptr %11, align 8
  %126 = load i32, ptr %14, align 4
  %127 = sext i32 %126 to i64
  %128 = getelementptr inbounds double, ptr %125, i64 %127
  %129 = load double, ptr %128, align 8
  %130 = fcmp olt double %129, 0.000000e+00
  br i1 %130, label %131, label %148

131:                                              ; preds = %124
  %132 = load double, ptr %9, align 8
  %133 = load double, ptr %7, align 8
  %134 = fneg double %133
  %135 = load ptr, ptr %11, align 8
  %136 = load i32, ptr %14, align 4
  %137 = sext i32 %136 to i64
  %138 = getelementptr inbounds double, ptr %135, i64 %137
  %139 = load double, ptr %138, align 8
  %140 = fdiv double %134, %139
  %141 = load ptr, ptr %10, align 8
  %142 = load i32, ptr %14, align 4
  %143 = sext i32 %142 to i64
  %144 = getelementptr inbounds double, ptr %141, i64 %143
  %145 = load double, ptr %144, align 8
  %146 = fmul double %140, %145
  %147 = call noundef double @_ZN5Ipopt3MinIdEET_S1_S1_(double noundef %132, double noundef %146)
  store double %147, ptr %9, align 8
  br label %148

148:                                              ; preds = %131, %124
  br label %149

149:                                              ; preds = %148
  %150 = load i32, ptr %14, align 4
  %151 = add nsw i32 %150, 1
  store i32 %151, ptr %14, align 4
  br label %120, !llvm.loop !85

152:                                              ; preds = %120
  br label %153

153:                                              ; preds = %152, %118
  br label %154

154:                                              ; preds = %153, %83
  %155 = load double, ptr %9, align 8
  store double %155, ptr %4, align 8
  br label %156

156:                                              ; preds = %154, %19
  %157 = load double, ptr %4, align 8
  ret double %157
}