; Function Attrs: mustprogress nofree norecurse nosync nounwind willreturn memory(read, inaccessiblemem: none) uwtable
define noundef double @_ZNK5Ipopt11DenseVector15FracToBoundImplERKNS_6VectorEd(ptr nocapture noundef nonnull readonly align 8 dereferenceable(248) %0, ptr nocapture noundef nonnull readonly align 8 dereferenceable(205) %1, double noundef %2) unnamed_addr #10 align 2 {
  %4 = getelementptr inbounds i8, ptr %0, i64 56
  %5 = load ptr, ptr %4, align 8
  %6 = getelementptr inbounds i8, ptr %5, i64 12
  %7 = load i32, ptr %6, align 4
  %8 = icmp eq i32 %7, 0
  br i1 %8, label %.loopexit, label %9

9:                                                ; preds = %3
  %10 = getelementptr inbounds i8, ptr %0, i64 216
  %11 = load ptr, ptr %10, align 8
  %12 = getelementptr inbounds i8, ptr %1, i64 216
  %13 = load ptr, ptr %12, align 8
  %14 = getelementptr inbounds i8, ptr %0, i64 233
  %15 = load i8, ptr %14, align 1
  %16 = and i8 %15, 1
  %.not = icmp eq i8 %16, 0
  %17 = getelementptr inbounds i8, ptr %1, i64 233
  %18 = load i8, ptr %17, align 1
  %19 = and i8 %18, 1
  %.not43 = icmp eq i8 %19, 0
  br i1 %.not, label %45, label %20

20:                                               ; preds = %9
  br i1 %.not43, label %.preheader50, label %25

.preheader50:                                     ; preds = %20
  %21 = icmp sgt i32 %7, 0
  br i1 %21, label %.lr.ph, label %.loopexit

.lr.ph:                                           ; preds = %.preheader50
  %22 = fneg double %2
  %23 = getelementptr inbounds i8, ptr %0, i64 240
  %24 = load double, ptr %23, align 8
  %wide.trip.count = zext nneg i32 %7 to i64
  br label %36

25:                                               ; preds = %20
  %26 = getelementptr inbounds i8, ptr %1, i64 240
  %27 = load double, ptr %26, align 8
  %28 = fcmp olt double %27, 0.000000e+00
  br i1 %28, label %29, label %.loopexit

29:                                               ; preds = %25
  %30 = fneg double %2
  %31 = fdiv double %30, %27
  %32 = getelementptr inbounds i8, ptr %0, i64 240
  %33 = load double, ptr %32, align 8
  %34 = fmul double %31, %33
  %35 = fcmp olt double %34, 1.000000e+00
  %.sroa.speculated.i = select i1 %35, double %34, double 1.000000e+00
  br label %.loopexit

36:                                               ; preds = %.lr.ph, %44
  %indvars.iv = phi i64 [ 0, %.lr.ph ], [ %indvars.iv.next, %44 ]
  %.03952 = phi double [ 1.000000e+00, %.lr.ph ], [ %.1, %44 ]
  %37 = getelementptr inbounds double, ptr %13, i64 %indvars.iv
  %38 = load double, ptr %37, align 8
  %39 = fcmp olt double %38, 0.000000e+00
  br i1 %39, label %40, label %44

40:                                               ; preds = %36
  %41 = fdiv double %22, %38
  %42 = fmul double %41, %24
  %43 = fcmp olt double %42, %.03952
  %.sroa.speculated.i45 = select i1 %43, double %42, double %.03952
  br label %44

44:                                               ; preds = %36, %40
  %.1 = phi double [ %.sroa.speculated.i45, %40 ], [ %.03952, %36 ]
  %indvars.iv.next = add nuw nsw i64 %indvars.iv, 1
  %exitcond.not = icmp eq i64 %indvars.iv.next, %wide.trip.count
  br i1 %exitcond.not, label %.loopexit, label %36, !llvm.loop !85

45:                                               ; preds = %9
  br i1 %.not43, label %.preheader, label %48

.preheader:                                       ; preds = %45
  %46 = icmp sgt i32 %7, 0
  br i1 %46, label %.lr.ph60, label %.loopexit

.lr.ph60:                                         ; preds = %.preheader
  %47 = fneg double %2
  %wide.trip.count73 = zext nneg i32 %7 to i64
  br label %60

48:                                               ; preds = %45
  %49 = getelementptr inbounds i8, ptr %1, i64 240
  %50 = load double, ptr %49, align 8
  %51 = fcmp olt double %50, 0.000000e+00
  %52 = icmp sgt i32 %7, 0
  %or.cond = and i1 %51, %52
  br i1 %or.cond, label %.lr.ph56, label %.loopexit

.lr.ph56:                                         ; preds = %48
  %53 = fneg double %2
  %54 = fdiv double %53, %50
  %wide.trip.count68 = zext nneg i32 %7 to i64
  br label %55

55:                                               ; preds = %.lr.ph56, %55
  %indvars.iv65 = phi i64 [ 0, %.lr.ph56 ], [ %indvars.iv.next66, %55 ]
  %.254 = phi double [ 1.000000e+00, %.lr.ph56 ], [ %.sroa.speculated.i46, %55 ]
  %56 = getelementptr inbounds double, ptr %11, i64 %indvars.iv65
  %57 = load double, ptr %56, align 8
  %58 = fmul double %54, %57
  %59 = fcmp olt double %58, %.254
  %.sroa.speculated.i46 = select i1 %59, double %58, double %.254
  %indvars.iv.next66 = add nuw nsw i64 %indvars.iv65, 1
  %exitcond69.not = icmp eq i64 %indvars.iv.next66, %wide.trip.count68
  br i1 %exitcond69.not, label %.loopexit, label %55, !llvm.loop !86

60:                                               ; preds = %.lr.ph60, %70
  %indvars.iv70 = phi i64 [ 0, %.lr.ph60 ], [ %indvars.iv.next71, %70 ]
  %.358 = phi double [ 1.000000e+00, %.lr.ph60 ], [ %.4, %70 ]
  %61 = getelementptr inbounds double, ptr %13, i64 %indvars.iv70
  %62 = load double, ptr %61, align 8
  %63 = fcmp olt double %62, 0.000000e+00
  br i1 %63, label %64, label %70

64:                                               ; preds = %60
  %65 = fdiv double %47, %62
  %66 = getelementptr inbounds double, ptr %11, i64 %indvars.iv70
  %67 = load double, ptr %66, align 8
  %68 = fmul double %65, %67
  %69 = fcmp olt double %68, %.358
  %.sroa.speculated.i47 = select i1 %69, double %68, double %.358
  br label %70

70:                                               ; preds = %60, %64
  %.4 = phi double [ %.sroa.speculated.i47, %64 ], [ %.358, %60 ]
  %indvars.iv.next71 = add nuw nsw i64 %indvars.iv70, 1
  %exitcond74.not = icmp eq i64 %indvars.iv.next71, %wide.trip.count73
  br i1 %exitcond74.not, label %.loopexit, label %60, !llvm.loop !87

.loopexit:                                        ; preds = %44, %55, %70, %.preheader50, %.preheader, %25, %29, %48, %3
  %.038 = phi double [ 1.000000e+00, %3 ], [ %.sroa.speculated.i, %29 ], [ 1.000000e+00, %25 ], [ 1.000000e+00, %48 ], [ 1.000000e+00, %.preheader ], [ 1.000000e+00, %.preheader50 ], [ %.4, %70 ], [ %.sroa.speculated.i46, %55 ], [ %.1, %44 ]
  ret double %.038
}